; Function Attrs: mustprogress nounwind uwtable
define hidden noundef zeroext i1 @_ZN8JVMCIEnv35isa_HotSpotCompilationRequestResultE11JVMCIObject(ptr noundef nonnull align 8 dereferenceable(64) %0, ptr %1, i8 %2) local_unnamed_addr #0 align 2 {
  %4 = getelementptr inbounds i8, ptr %0, i64 24
  %5 = load i8, ptr %4, align 8
  %6 = trunc i8 %5 to i1
  br i1 %6, label %7, label %9

7:                                                ; preds = %3
  %8 = tail call noundef zeroext i1 @_ZN12HotSpotJVMCI31HotSpotCompilationRequestResult11is_instanceEP8JVMCIEnv11JVMCIObject(ptr noundef nonnull %0, ptr %1, i8 %2) #14
  br label %11

9:                                                ; preds = %3
  %10 = tail call noundef zeroext i1 @_ZN8JNIJVMCI31HotSpotCompilationRequestResult11is_instanceEP8JVMCIEnv11JVMCIObject(ptr noundef nonnull %0, ptr %1, i8 %2) #14
  br label %11

11:                                               ; preds = %9, %7
  %.0 = phi i1 [ %8, %7 ], [ %10, %9 ]
  ret i1 %.0
}